; Function Attrs: mustprogress uwtable
define hidden void @_ZN5osgeo4proj22CPLJSonStreamingWriter3AddEfi(ptr noundef nonnull align 8 dereferenceable(153) %0, float noundef %1, i32 noundef %2) local_unnamed_addr #0 align 2 personality ptr @__gxx_personality_v0 {
  %4 = alloca %"class.std::__cxx11::basic_string", align 8
  %5 = alloca %"class.std::allocator", align 1
  %6 = alloca %"class.std::__cxx11::basic_string", align 8
  %7 = alloca %"class.std::allocator", align 1
  %8 = alloca [10 x i8], align 1
  %9 = alloca %"class.std::__cxx11::basic_string", align 8
  tail call void @_ZN5osgeo4proj22CPLJSonStreamingWriter17EmitCommaIfNeededEv(ptr noundef nonnull align 8 dereferenceable(153) %0)
  %10 = fcmp uno float %1, 0.000000e+00
  br i1 %10, label %11, label %26

11:                                               ; preds = %3
  call void @_ZNSaIcEC1Ev(ptr noundef nonnull align 1 dereferenceable(1) %5) #13
  invoke void @_ZNSt7__cxx1112basic_stringIcSt11char_traitsIcESaIcEEC1EPKcRKS3_(ptr noundef nonnull align 8 dereferenceable(32) %4, ptr noundef nonnull @.str.22, ptr noundef nonnull align 1 dereferenceable(1) %5)
          to label %12 unwind label %21

12:                                               ; preds = %11
  %13 = getelementptr inbounds i8, ptr %0, i64 32
  %14 = load ptr, ptr %13, align 8
  %.not.i = icmp eq ptr %14, null
  br i1 %.not.i, label %19, label %15

15:                                               ; preds = %12
  %16 = call noundef ptr @_ZNKSt7__cxx1112basic_stringIcSt11char_traitsIcESaIcEE5c_strEv(ptr noundef nonnull align 8 dereferenceable(32) %4) #13
  %17 = getelementptr inbounds i8, ptr %0, i64 40
  %18 = load ptr, ptr %17, align 8
  invoke void %14(ptr noundef %16, ptr noundef %18)
          to label %_ZN5osgeo4proj22CPLJSonStreamingWriter5PrintERKNSt7__cxx1112basic_stringIcSt11char_traitsIcESaIcEEE.exit unwind label %23

19:                                               ; preds = %12
  %20 = invoke noundef nonnull align 8 dereferenceable(32) ptr @_ZNSt7__cxx1112basic_stringIcSt11char_traitsIcESaIcEEpLERKS4_(ptr noundef nonnull align 8 dereferenceable(32) %0, ptr noundef nonnull align 8 dereferenceable(32) %4)
          to label %_ZN5osgeo4proj22CPLJSonStreamingWriter5PrintERKNSt7__cxx1112basic_stringIcSt11char_traitsIcESaIcEEE.exit unwind label %23

_ZN5osgeo4proj22CPLJSonStreamingWriter5PrintERKNSt7__cxx1112basic_stringIcSt11char_traitsIcESaIcEEE.exit: ; preds = %15, %19
  call void @_ZNSt7__cxx1112basic_stringIcSt11char_traitsIcESaIcEED1Ev(ptr noundef nonnull align 8 dereferenceable(32) %4) #13
  call void @_ZNSaIcED1Ev(ptr noundef nonnull align 1 dereferenceable(1) %5) #13
  br label %59

21:                                               ; preds = %11
  %22 = landingpad { ptr, i32 }
          cleanup
  br label %25

23:                                               ; preds = %19, %15
  %24 = landingpad { ptr, i32 }
          cleanup
  call void @_ZNSt7__cxx1112basic_stringIcSt11char_traitsIcESaIcEED1Ev(ptr noundef nonnull align 8 dereferenceable(32) %4) #13
  br label %25

25:                                               ; preds = %23, %21
  %.pn11 = phi { ptr, i32 } [ %24, %23 ], [ %22, %21 ]
  call void @_ZNSaIcED1Ev(ptr noundef nonnull align 1 dereferenceable(1) %5) #13
  br label %60

26:                                               ; preds = %3
  %27 = tail call float @llvm.fabs.f32(float %1)
  %28 = fcmp oeq float %27, 0x7FF0000000000000
  br i1 %28, label %29, label %46

29:                                               ; preds = %26
  %30 = fcmp ogt float %1, 0.000000e+00
  %31 = select i1 %30, ptr @.str.23, ptr @.str.24
  call void @_ZNSaIcEC1Ev(ptr noundef nonnull align 1 dereferenceable(1) %7) #13
  invoke void @_ZNSt7__cxx1112basic_stringIcSt11char_traitsIcESaIcEEC1EPKcRKS3_(ptr noundef nonnull align 8 dereferenceable(32) %6, ptr noundef nonnull %31, ptr noundef nonnull align 1 dereferenceable(1) %7)
          to label %32 unwind label %41

32:                                               ; preds = %29
  %33 = getelementptr inbounds i8, ptr %0, i64 32
  %34 = load ptr, ptr %33, align 8
  %.not.i15 = icmp eq ptr %34, null
  br i1 %.not.i15, label %39, label %35

35:                                               ; preds = %32
  %36 = call noundef ptr @_ZNKSt7__cxx1112basic_stringIcSt11char_traitsIcESaIcEE5c_strEv(ptr noundef nonnull align 8 dereferenceable(32) %6) #13
  %37 = getelementptr inbounds i8, ptr %0, i64 40
  %38 = load ptr, ptr %37, align 8
  invoke void %34(ptr noundef %36, ptr noundef %38)
          to label %_ZN5osgeo4proj22CPLJSonStreamingWriter5PrintERKNSt7__cxx1112basic_stringIcSt11char_traitsIcESaIcEEE.exit18 unwind label %43

39:                                               ; preds = %32
  %40 = invoke noundef nonnull align 8 dereferenceable(32) ptr @_ZNSt7__cxx1112basic_stringIcSt11char_traitsIcESaIcEEpLERKS4_(ptr noundef nonnull align 8 dereferenceable(32) %0, ptr noundef nonnull align 8 dereferenceable(32) %6)
          to label %_ZN5osgeo4proj22CPLJSonStreamingWriter5PrintERKNSt7__cxx1112basic_stringIcSt11char_traitsIcESaIcEEE.exit18 unwind label %43

_ZN5osgeo4proj22CPLJSonStreamingWriter5PrintERKNSt7__cxx1112basic_stringIcSt11char_traitsIcESaIcEEE.exit18: ; preds = %35, %39
  call void @_ZNSt7__cxx1112basic_stringIcSt11char_traitsIcESaIcEED1Ev(ptr noundef nonnull align 8 dereferenceable(32) %6) #13
  call void @_ZNSaIcED1Ev(ptr noundef nonnull align 1 dereferenceable(1) %7) #13
  br label %59

41:                                               ; preds = %29
  %42 = landingpad { ptr, i32 }
          cleanup
  br label %45

43:                                               ; preds = %39, %35
  %44 = landingpad { ptr, i32 }
          cleanup
  call void @_ZNSt7__cxx1112basic_stringIcSt11char_traitsIcESaIcEED1Ev(ptr noundef nonnull align 8 dereferenceable(32) %6) #13
  br label %45

45:                                               ; preds = %43, %41
  %.pn = phi { ptr, i32 } [ %44, %43 ], [ %42, %41 ]
  call void @_ZNSaIcED1Ev(ptr noundef nonnull align 1 dereferenceable(1) %7) #13
  br label %60

46:                                               ; preds = %26
  %47 = call i32 (ptr, i64, ptr, ...) @snprintf(ptr noundef nonnull dereferenceable(1) %8, i64 noundef 10, ptr noundef nonnull @.str.25, i32 noundef %2) #13
  %48 = fpext float %1 to double
  call void (ptr, ptr, ...) @_ZL10CPLSPrintfB5cxx11PKcz(ptr dead_on_unwind nonnull writable sret(%"class.std::__cxx11::basic_string") align 8 %9, ptr noundef nonnull %8, double noundef %48)
  %49 = getelementptr inbounds i8, ptr %0, i64 32
  %50 = load ptr, ptr %49, align 8
  %.not.i19 = icmp eq ptr %50, null
  br i1 %.not.i19, label %55, label %51

51:                                               ; preds = %46
  %52 = call noundef ptr @_ZNKSt7__cxx1112basic_stringIcSt11char_traitsIcESaIcEE5c_strEv(ptr noundef nonnull align 8 dereferenceable(32) %9) #13
  %53 = getelementptr inbounds i8, ptr %0, i64 40
  %54 = load ptr, ptr %53, align 8
  invoke void %50(ptr noundef %52, ptr noundef %54)
          to label %_ZN5osgeo4proj22CPLJSonStreamingWriter5PrintERKNSt7__cxx1112basic_stringIcSt11char_traitsIcESaIcEEE.exit22 unwind label %57

55:                                               ; preds = %46
  %56 = invoke noundef nonnull align 8 dereferenceable(32) ptr @_ZNSt7__cxx1112basic_stringIcSt11char_traitsIcESaIcEEpLERKS4_(ptr noundef nonnull align 8 dereferenceable(32) %0, ptr noundef nonnull align 8 dereferenceable(32) %9)
          to label %_ZN5osgeo4proj22CPLJSonStreamingWriter5PrintERKNSt7__cxx1112basic_stringIcSt11char_traitsIcESaIcEEE.exit22 unwind label %57

_ZN5osgeo4proj22CPLJSonStreamingWriter5PrintERKNSt7__cxx1112basic_stringIcSt11char_traitsIcESaIcEEE.exit22: ; preds = %51, %55
  call void @_ZNSt7__cxx1112basic_stringIcSt11char_traitsIcESaIcEED1Ev(ptr noundef nonnull align 8 dereferenceable(32) %9) #13
  br label %59

57:                                               ; preds = %55, %51
  %58 = landingpad { ptr, i32 }
          cleanup
  call void @_ZNSt7__cxx1112basic_stringIcSt11char_traitsIcESaIcEED1Ev(ptr noundef nonnull align 8 dereferenceable(32) %9) #13
  br label %60

59:                                               ; preds = %_ZN5osgeo4proj22CPLJSonStreamingWriter5PrintERKNSt7__cxx1112basic_stringIcSt11char_traitsIcESaIcEEE.exit18, %_ZN5osgeo4proj22CPLJSonStreamingWriter5PrintERKNSt7__cxx1112basic_stringIcSt11char_traitsIcESaIcEEE.exit22, %_ZN5osgeo4proj22CPLJSonStreamingWriter5PrintERKNSt7__cxx1112basic_stringIcSt11char_traitsIcESaIcEEE.exit
  ret void

60:                                               ; preds = %57, %45, %25
  %.pn11.pn = phi { ptr, i32 } [ %.pn11, %25 ], [ %.pn, %45 ], [ %58, %57 ]
  resume { ptr, i32 } %.pn11.pn
}